target datalayout = "e-m:e-p270:32:32-p271:32:32-p272:64:64-i64:64-i128:128-f80:128-n8:16:32:64-S128"
target triple = "x86_64-pc-linux-gnu"

; Function Attrs: nounwind uwtable
define internal void @diag_downleft_4x4_c(ptr noundef %0, i64 noundef %1, ptr noundef %2, ptr noundef %3) #1 {
  %5 = alloca ptr, align 8
  %6 = alloca i64, align 8
  %7 = alloca ptr, align 8
  %8 = alloca ptr, align 8
  %9 = alloca ptr, align 8
  %10 = alloca ptr, align 8
  %11 = alloca i32, align 4
  %12 = alloca i32, align 4
  %13 = alloca i32, align 4
  %14 = alloca i32, align 4
  %15 = alloca i32, align 4
  %16 = alloca i32, align 4
  %17 = alloca i32, align 4
  %18 = alloca i32, align 4
  store ptr %0, ptr %5, align 8, !tbaa !10
  store i64 %1, ptr %6, align 8, !tbaa !12
  store ptr %2, ptr %7, align 8, !tbaa !10
  store ptr %3, ptr %8, align 8, !tbaa !10
  call void @llvm.lifetime.start.p0(i64 8, ptr %9) #9
  %19 = load ptr, ptr %5, align 8, !tbaa !10
  store ptr %19, ptr %9, align 8, !tbaa !14
  call void @llvm.lifetime.start.p0(i64 8, ptr %10) #9
  %20 = load ptr, ptr %8, align 8, !tbaa !10
  store ptr %20, ptr %10, align 8, !tbaa !14
  call void @llvm.lifetime.start.p0(i64 4, ptr %11) #9
  %21 = load ptr, ptr %10, align 8, !tbaa !14
  %22 = getelementptr inbounds i16, ptr %21, i64 0
  %23 = load i16, ptr %22, align 2, !tbaa !17
  %24 = zext i16 %23 to i32
  store i32 %24, ptr %11, align 4, !tbaa !19
  call void @llvm.lifetime.start.p0(i64 4, ptr %12) #9
  %25 = load ptr, ptr %10, align 8, !tbaa !14
  %26 = getelementptr inbounds i16, ptr %25, i64 1
  %27 = load i16, ptr %26, align 2, !tbaa !17
  %28 = zext i16 %27 to i32
  store i32 %28, ptr %12, align 4, !tbaa !19
  call void @llvm.lifetime.start.p0(i64 4, ptr %13) #9
  %29 = load ptr, ptr %10, align 8, !tbaa !14
  %30 = getelementptr inbounds i16, ptr %29, i64 2
  %31 = load i16, ptr %30, align 2, !tbaa !17
  %32 = zext i16 %31 to i32
  store i32 %32, ptr %13, align 4, !tbaa !19
  call void @llvm.lifetime.start.p0(i64 4, ptr %14) #9
  %33 = load ptr, ptr %10, align 8, !tbaa !14
  %34 = getelementptr inbounds i16, ptr %33, i64 3
  %35 = load i16, ptr %34, align 2, !tbaa !17
  %36 = zext i16 %35 to i32
  store i32 %36, ptr %14, align 4, !tbaa !19
  call void @llvm.lifetime.start.p0(i64 4, ptr %15) #9
  %37 = load ptr, ptr %10, align 8, !tbaa !14
  %38 = getelementptr inbounds i16, ptr %37, i64 4
  %39 = load i16, ptr %38, align 2, !tbaa !17
  %40 = zext i16 %39 to i32
  store i32 %40, ptr %15, align 4, !tbaa !19
  call void @llvm.lifetime.start.p0(i64 4, ptr %16) #9
  %41 = load ptr, ptr %10, align 8, !tbaa !14
  %42 = getelementptr inbounds i16, ptr %41, i64 5
  %43 = load i16, ptr %42, align 2, !tbaa !17
  %44 = zext i16 %43 to i32
  store i32 %44, ptr %16, align 4, !tbaa !19
  call void @llvm.lifetime.start.p0(i64 4, ptr %17) #9
  %45 = load ptr, ptr %10, align 8, !tbaa !14
  %46 = getelementptr inbounds i16, ptr %45, i64 6
  %47 = load i16, ptr %46, align 2, !tbaa !17
  %48 = zext i16 %47 to i32
  store i32 %48, ptr %17, align 4, !tbaa !19
  call void @llvm.lifetime.start.p0(i64 4, ptr %18) #9
  %49 = load ptr, ptr %10, align 8, !tbaa !14
  %50 = getelementptr inbounds i16, ptr %49, i64 7
  %51 = load i16, ptr %50, align 2, !tbaa !17
  %52 = zext i16 %51 to i32
  store i32 %52, ptr %18, align 4, !tbaa !19
  %53 = load i64, ptr %6, align 8, !tbaa !12
  %54 = udiv i64 %53, 2
  store i64 %54, ptr %6, align 8, !tbaa !12
  %55 = load i32, ptr %11, align 4, !tbaa !19
  %56 = load i32, ptr %12, align 4, !tbaa !19
  %57 = mul nsw i32 %56, 2
  %58 = add nsw i32 %55, %57
  %59 = load i32, ptr %13, align 4, !tbaa !19
  %60 = add nsw i32 %58, %59
  %61 = add nsw i32 %60, 2
  %62 = ashr i32 %61, 2
  %63 = trunc i32 %62 to i16
  %64 = load ptr, ptr %9, align 8, !tbaa !14
  %65 = load i64, ptr %6, align 8, !tbaa !12
  %66 = mul nsw i64 0, %65
  %67 = add nsw i64 0, %66
  %68 = getelementptr inbounds i16, ptr %64, i64 %67
  store i16 %63, ptr %68, align 2, !tbaa !17
  %69 = load i32, ptr %12, align 4, !tbaa !19
  %70 = load i32, ptr %13, align 4, !tbaa !19
  %71 = mul nsw i32 %70, 2
  %72 = add nsw i32 %69, %71
  %73 = load i32, ptr %14, align 4, !tbaa !19
  %74 = add nsw i32 %72, %73
  %75 = add nsw i32 %74, 2
  %76 = ashr i32 %75, 2
  %77 = trunc i32 %76 to i16
  %78 = load ptr, ptr %9, align 8, !tbaa !14
  %79 = load i64, ptr %6, align 8, !tbaa !12
  %80 = mul nsw i64 1, %79
  %81 = add nsw i64 0, %80
  %82 = getelementptr inbounds i16, ptr %78, i64 %81
  store i16 %77, ptr %82, align 2, !tbaa !17
  %83 = load ptr, ptr %9, align 8, !tbaa !14
  %84 = load i64, ptr %6, align 8, !tbaa !12
  %85 = mul nsw i64 0, %84
  %86 = add nsw i64 1, %85
  %87 = getelementptr inbounds i16, ptr %83, i64 %86
  store i16 %77, ptr %87, align 2, !tbaa !17
  %88 = load i32, ptr %13, align 4, !tbaa !19
  %89 = load i32, ptr %14, align 4, !tbaa !19
  %90 = mul nsw i32 %89, 2
  %91 = add nsw i32 %88, %90
  %92 = load i32, ptr %15, align 4, !tbaa !19
  %93 = add nsw i32 %91, %92
  %94 = add nsw i32 %93, 2
  %95 = ashr i32 %94, 2
  %96 = trunc i32 %95 to i16
  %97 = load ptr, ptr %9, align 8, !tbaa !14
  %98 = load i64, ptr %6, align 8, !tbaa !12
  %99 = mul nsw i64 2, %98
  %100 = add nsw i64 0, %99
  %101 = getelementptr inbounds i16, ptr %97, i64 %100
  store i16 %96, ptr %101, align 2, !tbaa !17
  %102 = load ptr, ptr %9, align 8, !tbaa !14
  %103 = load i64, ptr %6, align 8, !tbaa !12
  %104 = mul nsw i64 1, %103
  %105 = add nsw i64 1, %104
  %106 = getelementptr inbounds i16, ptr %102, i64 %105
  store i16 %96, ptr %106, align 2, !tbaa !17
  %107 = load ptr, ptr %9, align 8, !tbaa !14
  %108 = load i64, ptr %6, align 8, !tbaa !12
  %109 = mul nsw i64 0, %108
  %110 = add nsw i64 2, %109
  %111 = getelementptr inbounds i16, ptr %107, i64 %110
  store i16 %96, ptr %111, align 2, !tbaa !17
  %112 = load i32, ptr %14, align 4, !tbaa !19
  %113 = load i32, ptr %15, align 4, !tbaa !19
  %114 = mul nsw i32 %113, 2
  %115 = add nsw i32 %112, %114
  %116 = load i32, ptr %16, align 4, !tbaa !19
  %117 = add nsw i32 %115, %116
  %118 = add nsw i32 %117, 2
  %119 = ashr i32 %118, 2
  %120 = trunc i32 %119 to i16
  %121 = load ptr, ptr %9, align 8, !tbaa !14
  %122 = load i64, ptr %6, align 8, !tbaa !12
  %123 = mul nsw i64 3, %122
  %124 = add nsw i64 0, %123
  %125 = getelementptr inbounds i16, ptr %121, i64 %124
  store i16 %120, ptr %125, align 2, !tbaa !17
  %126 = load ptr, ptr %9, align 8, !tbaa !14
  %127 = load i64, ptr %6, align 8, !tbaa !12
  %128 = mul nsw i64 2, %127
  %129 = add nsw i64 1, %128
  %130 = getelementptr inbounds i16, ptr %126, i64 %129
  store i16 %120, ptr %130, align 2, !tbaa !17
  %131 = load ptr, ptr %9, align 8, !tbaa !14
  %132 = load i64, ptr %6, align 8, !tbaa !12
  %133 = mul nsw i64 1, %132
  %134 = add nsw i64 2, %133
  %135 = getelementptr inbounds i16, ptr %131, i64 %134
  store i16 %120, ptr %135, align 2, !tbaa !17
  %136 = load ptr, ptr %9, align 8, !tbaa !14
  %137 = load i64, ptr %6, align 8, !tbaa !12
  %138 = mul nsw i64 0, %137
  %139 = add nsw i64 3, %138
  %140 = getelementptr inbounds i16, ptr %136, i64 %139
  store i16 %120, ptr %140, align 2, !tbaa !17
  %141 = load i32, ptr %15, align 4, !tbaa !19
  %142 = load i32, ptr %16, align 4, !tbaa !19
  %143 = mul nsw i32 %142, 2
  %144 = add nsw i32 %141, %143
  %145 = load i32, ptr %17, align 4, !tbaa !19
  %146 = add nsw i32 %144, %145
  %147 = add nsw i32 %146, 2
  %148 = ashr i32 %147, 2
  %149 = trunc i32 %148 to i16
  %150 = load ptr, ptr %9, align 8, !tbaa !14
  %151 = load i64, ptr %6, align 8, !tbaa !12
  %152 = mul nsw i64 3, %151
  %153 = add nsw i64 1, %152
  %154 = getelementptr inbounds i16, ptr %150, i64 %153
  store i16 %149, ptr %154, align 2, !tbaa !17
  %155 = load ptr, ptr %9, align 8, !tbaa !14
  %156 = load i64, ptr %6, align 8, !tbaa !12
  %157 = mul nsw i64 2, %156
  %158 = add nsw i64 2, %157
  %159 = getelementptr inbounds i16, ptr %155, i64 %158
  store i16 %149, ptr %159, align 2, !tbaa !17
  %160 = load ptr, ptr %9, align 8, !tbaa !14
  %161 = load i64, ptr %6, align 8, !tbaa !12
  %162 = mul nsw i64 1, %161
  %163 = add nsw i64 3, %162
  %164 = getelementptr inbounds i16, ptr %160, i64 %163
  store i16 %149, ptr %164, align 2, !tbaa !17
  %165 = load i32, ptr %16, align 4, !tbaa !19
  %166 = load i32, ptr %17, align 4, !tbaa !19
  %167 = mul nsw i32 %166, 2
  %168 = add nsw i32 %165, %167
  %169 = load i32, ptr %18, align 4, !tbaa !19
  %170 = add nsw i32 %168, %169
  %171 = add nsw i32 %170, 2
  %172 = ashr i32 %171, 2
  %173 = trunc i32 %172 to i16
  %174 = load ptr, ptr %9, align 8, !tbaa !14
  %175 = load i64, ptr %6, align 8, !tbaa !12
  %176 = mul nsw i64 3, %175
  %177 = add nsw i64 2, %176
  %178 = getelementptr inbounds i16, ptr %174, i64 %177
  store i16 %173, ptr %178, align 2, !tbaa !17
  %179 = load ptr, ptr %9, align 8, !tbaa !14
  %180 = load i64, ptr %6, align 8, !tbaa !12
  %181 = mul nsw i64 2, %180
  %182 = add nsw i64 3, %181
  %183 = getelementptr inbounds i16, ptr %179, i64 %182
  store i16 %173, ptr %183, align 2, !tbaa !17
  %184 = load i32, ptr %18, align 4, !tbaa !19
  %185 = trunc i32 %184 to i16
  %186 = load ptr, ptr %9, align 8, !tbaa !14
  %187 = load i64, ptr %6, align 8, !tbaa !12
  %188 = mul nsw i64 3, %187
  %189 = add nsw i64 3, %188
  %190 = getelementptr inbounds i16, ptr %186, i64 %189
  store i16 %185, ptr %190, align 2, !tbaa !17
  call void @llvm.lifetime.end.p0(i64 4, ptr %18) #9
  call void @llvm.lifetime.end.p0(i64 4, ptr %17) #9
  call void @llvm.lifetime.end.p0(i64 4, ptr %16) #9
  call void @llvm.lifetime.end.p0(i64 4, ptr %15) #9
  call void @llvm.lifetime.end.p0(i64 4, ptr %14) #9
  call void @llvm.lifetime.end.p0(i64 4, ptr %13) #9
  call void @llvm.lifetime.end.p0(i64 4, ptr %12) #9
  call void @llvm.lifetime.end.p0(i64 4, ptr %11) #9
  call void @llvm.lifetime.end.p0(i64 8, ptr %10) #9
  call void @llvm.lifetime.end.p0(i64 8, ptr %9) #9
  ret void
}