; Function Attrs: mustprogress nofree norecurse nosync nounwind willreturn memory(argmem: readwrite) uwtable
define internal void @diag_downleft_4x4_c(ptr noundef writeonly captures(none) initializes((0, 8)) %0, i64 noundef %1, ptr readnone captures(none) %2, ptr noundef readonly captures(none) %3) #1 {
  %5 = load i16, ptr %3, align 2, !tbaa !9
  %6 = zext i16 %5 to i32
  %7 = getelementptr inbounds nuw i8, ptr %3, i64 2
  %8 = load i16, ptr %7, align 2, !tbaa !9
  %9 = zext i16 %8 to i32
  %10 = getelementptr inbounds nuw i8, ptr %3, i64 4
  %11 = load i16, ptr %10, align 2, !tbaa !9
  %12 = zext i16 %11 to i32
  %13 = getelementptr inbounds nuw i8, ptr %3, i64 6
  %14 = load i16, ptr %13, align 2, !tbaa !9
  %15 = zext i16 %14 to i32
  %16 = getelementptr inbounds nuw i8, ptr %3, i64 8
  %17 = load i16, ptr %16, align 2, !tbaa !9
  %18 = zext i16 %17 to i32
  %19 = getelementptr inbounds nuw i8, ptr %3, i64 10
  %20 = load i16, ptr %19, align 2, !tbaa !9
  %21 = zext i16 %20 to i32
  %22 = getelementptr inbounds nuw i8, ptr %3, i64 12
  %23 = load i16, ptr %22, align 2, !tbaa !9
  %24 = zext i16 %23 to i32
  %25 = getelementptr inbounds nuw i8, ptr %3, i64 14
  %26 = load i16, ptr %25, align 2, !tbaa !9
  %27 = zext i16 %26 to i32
  %28 = lshr i64 %1, 1
  %29 = shl nuw nsw i32 %9, 1
  %30 = add nuw nsw i32 %12, 2
  %31 = add nuw nsw i32 %30, %6
  %32 = add nuw nsw i32 %31, %29
  %33 = lshr i32 %32, 2
  %34 = trunc nuw i32 %33 to i16
  store i16 %34, ptr %0, align 2, !tbaa !9
  %35 = shl nuw nsw i32 %12, 1
  %36 = add nuw nsw i32 %15, 2
  %37 = add nuw nsw i32 %36, %9
  %38 = add nuw nsw i32 %37, %35
  %39 = lshr i32 %38, 2
  %40 = trunc nuw i32 %39 to i16
  %41 = getelementptr inbounds nuw i16, ptr %0, i64 %28
  store i16 %40, ptr %41, align 2, !tbaa !9
  %42 = getelementptr inbounds nuw i8, ptr %0, i64 2
  store i16 %40, ptr %42, align 2, !tbaa !9
  %43 = shl nuw nsw i32 %15, 1
  %44 = add nuw nsw i32 %30, %43
  %45 = add nuw nsw i32 %44, %18
  %46 = lshr i32 %45, 2
  %47 = trunc nuw i32 %46 to i16
  %48 = and i64 %1, -2
  %49 = getelementptr inbounds nuw i16, ptr %0, i64 %48
  store i16 %47, ptr %49, align 2, !tbaa !9
  %50 = getelementptr inbounds nuw i8, ptr %41, i64 2
  store i16 %47, ptr %50, align 2, !tbaa !9
  %51 = getelementptr inbounds nuw i8, ptr %0, i64 4
  store i16 %47, ptr %51, align 2, !tbaa !9
  %52 = shl nuw nsw i32 %18, 1
  %53 = add nuw nsw i32 %36, %52
  %54 = add nuw nsw i32 %53, %21
  %55 = lshr i32 %54, 2
  %56 = trunc nuw i32 %55 to i16
  %.idx = mul nuw nsw i64 %28, 6
  %57 = getelementptr inbounds nuw i8, ptr %0, i64 %.idx
  store i16 %56, ptr %57, align 2, !tbaa !9
  %58 = or i64 %1, 1
  %59 = getelementptr inbounds nuw i16, ptr %0, i64 %58
  store i16 %56, ptr %59, align 2, !tbaa !9
  %60 = getelementptr inbounds nuw i8, ptr %41, i64 4
  store i16 %56, ptr %60, align 2, !tbaa !9
  %61 = getelementptr inbounds nuw i8, ptr %0, i64 6
  store i16 %56, ptr %61, align 2, !tbaa !9
  %62 = shl nuw nsw i32 %21, 1
  %63 = add nuw nsw i32 %18, 2
  %64 = add nuw nsw i32 %63, %62
  %65 = add nuw nsw i32 %64, %24
  %66 = lshr i32 %65, 2
  %67 = trunc nuw i32 %66 to i16
  %68 = getelementptr inbounds nuw i8, ptr %57, i64 2
  store i16 %67, ptr %68, align 2, !tbaa !9
  %69 = getelementptr inbounds nuw i8, ptr %49, i64 4
  store i16 %67, ptr %69, align 2, !tbaa !9
  %70 = getelementptr inbounds nuw i8, ptr %41, i64 6
  store i16 %67, ptr %70, align 2, !tbaa !9
  %71 = shl nuw nsw i32 %24, 1
  %72 = add nuw nsw i32 %21, 2
  %73 = add nuw nsw i32 %72, %71
  %74 = add nuw nsw i32 %73, %27
  %75 = lshr i32 %74, 2
  %76 = trunc nuw i32 %75 to i16
  %77 = getelementptr inbounds nuw i8, ptr %57, i64 4
  store i16 %76, ptr %77, align 2, !tbaa !9
  %78 = getelementptr inbounds nuw i8, ptr %49, i64 6
  store i16 %76, ptr %78, align 2, !tbaa !9
  %79 = getelementptr inbounds nuw i8, ptr %57, i64 6
  store i16 %26, ptr %79, align 2, !tbaa !9
  ret void
}